; Function Attrs: nounwind uwtable
define i64 @COVER_checkTotalCompressedSize(ptr noundef readonly byval(%struct.ZDICT_cover_params_t) align 8 captures(none) %0, ptr noundef readonly captures(none) %1, ptr noundef %2, ptr noundef readonly captures(none) %3, i64 noundef %4, i64 noundef %5, ptr noundef %6, i64 noundef %7) local_unnamed_addr #5 {
  %9 = getelementptr inbounds nuw i8, ptr %0, i64 16
  %10 = load double, ptr %9, align 8, !tbaa !12
  %11 = fcmp olt double %10, 1.000000e+00
  %12 = select i1 %11, i64 %4, i64 0
  %13 = icmp uge i64 %12, %5
  br i1 %13, label %._crit_edge, label %.lr.ph

.lr.ph:                                           ; preds = %8, %.lr.ph
  %.04556 = phi i64 [ %..045, %.lr.ph ], [ 0, %8 ]
  %.04655 = phi i64 [ %16, %.lr.ph ], [ %12, %8 ]
  %14 = getelementptr inbounds nuw i64, ptr %1, i64 %.04655
  %15 = load i64, ptr %14, align 8, !tbaa !3
  %..045 = tail call i64 @llvm.umax.i64(i64 %15, i64 %.04556)
  %16 = add nuw i64 %.04655, 1
  %exitcond.not = icmp eq i64 %16, %5
  br i1 %exitcond.not, label %._crit_edge, label %.lr.ph, !llvm.loop !55

._crit_edge:                                      ; preds = %.lr.ph, %8
  %.045.lcssa = phi i64 [ 0, %8 ], [ %..045, %.lr.ph ]
  %17 = tail call i64 @ZSTD_compressBound(i64 noundef %.045.lcssa) #22
  %18 = tail call noalias ptr @malloc(i64 noundef %17) #24
  %19 = tail call ptr @ZSTD_createCCtx() #22
  %20 = getelementptr inbounds nuw i8, ptr %0, i64 32
  %21 = load i32, ptr %20, align 8, !tbaa !56
  %22 = tail call ptr @ZSTD_createCDict(ptr noundef %6, i64 noundef %7, i32 noundef %21) #22
  %23 = icmp eq ptr %18, null
  %24 = icmp eq ptr %19, null
  %or.cond.not = select i1 %23, i1 true, i1 %24
  %25 = icmp eq ptr %22, null
  %or.cond3 = select i1 %or.cond.not, i1 true, i1 %25
  %brmerge = or i1 %or.cond3, %13
  %.mux = select i1 %or.cond3, i64 -1, i64 %7
  br i1 %brmerge, label %.loopexit, label %.lr.ph59

.lr.ph59:                                         ; preds = %._crit_edge, %33
  %.158 = phi i64 [ %35, %33 ], [ %12, %._crit_edge ]
  %.14857 = phi i64 [ %34, %33 ], [ %7, %._crit_edge ]
  %26 = getelementptr inbounds nuw i64, ptr %3, i64 %.158
  %27 = load i64, ptr %26, align 8, !tbaa !3
  %28 = getelementptr inbounds nuw i8, ptr %2, i64 %27
  %29 = getelementptr inbounds nuw i64, ptr %1, i64 %.158
  %30 = load i64, ptr %29, align 8, !tbaa !3
  %31 = tail call i64 @ZSTD_compress_usingCDict(ptr noundef nonnull %19, ptr noundef nonnull %18, i64 noundef %17, ptr noundef %28, i64 noundef %30, ptr noundef nonnull %22) #22
  %32 = icmp ult i64 %31, -119
  br i1 %32, label %33, label %.loopexit

33:                                               ; preds = %.lr.ph59
  %34 = add i64 %31, %.14857
  %35 = add i64 %.158, 1
  %exitcond63.not = icmp eq i64 %35, %5
  br i1 %exitcond63.not, label %.loopexit, label %.lr.ph59, !llvm.loop !57

.loopexit:                                        ; preds = %33, %.lr.ph59, %._crit_edge
  %.047 = phi i64 [ %.mux, %._crit_edge ], [ %34, %33 ], [ %31, %.lr.ph59 ]
  %36 = tail call i64 @ZSTD_freeCCtx(ptr noundef %19) #22
  %37 = tail call i64 @ZSTD_freeCDict(ptr noundef %22) #22
  br i1 %23, label %39, label %38

38:                                               ; preds = %.loopexit
  tail call void @free(ptr noundef nonnull %18) #22
  br label %39

39:                                               ; preds = %.loopexit, %38
  ret i64 %.047
}